target datalayout = "e-m:e-p270:32:32-p271:32:32-p272:64:64-i64:64-i128:128-f80:128-n8:16:32:64-S128"
target triple = "x86_64-pc-linux-gnu"

%struct._object = type { %union.anon, ptr }
%union.anon = type { i64 }
%struct.anon.0 = type { i32, i32 }

@Py_IgnoreEnvironmentFlag = external global i32, align 4
@.str.295 = private unnamed_addr constant [20 x i8] c"Failed to set hook\0A\00", align 1
@.str.296 = private unnamed_addr constant [39 x i8] c"Should have failed to set second hook\0A\00", align 1
@.str.297 = private unnamed_addr constant [16 x i8] c"$$test-filename\00", align 1
@.str.298 = private unnamed_addr constant [39 x i8] c"Did not get expected result from hook\0A\00", align 1
@.str.299 = private unnamed_addr constant [4 x i8] c"_io\00", align 1
@.str.300 = private unnamed_addr constant [10 x i8] c"open_code\00", align 1
@.str.301 = private unnamed_addr constant [2 x i8] c"s\00", align 1

; Function Attrs: alwaysinline nounwind uwtable
define internal i32 @_Py_IsImmortal(ptr noundef %0) #9 {
  %2 = alloca ptr, align 8
  store ptr %0, ptr %2, align 8, !tbaa !80
  %3 = load ptr, ptr %2, align 8, !tbaa !80
  %4 = getelementptr inbounds nuw %struct._object, ptr %3, i32 0, i32 0
  %5 = getelementptr inbounds nuw %struct.anon.0, ptr %4, i32 0, i32 0
  %6 = load i32, ptr %5, align 8, !tbaa !100
  %7 = icmp slt i32 %6, 0
  %8 = zext i1 %7 to i32
  ret i32 %8
}

; Function Attrs: inlinehint nounwind uwtable
define internal void @Py_XDECREF(ptr noundef %0) #10 {
  %2 = alloca ptr, align 8
  store ptr %0, ptr %2, align 8, !tbaa !80
  %3 = load ptr, ptr %2, align 8, !tbaa !80
  %4 = icmp ne ptr %3, null
  br i1 %4, label %5, label %7

5:                                                ; preds = %1
  %6 = load ptr, ptr %2, align 8, !tbaa !80
  call void @Py_DECREF(ptr noundef %6)
  br label %7

7:                                                ; preds = %5, %1
  ret void
}

; Function Attrs: alwaysinline nounwind uwtable
define internal void @Py_DECREF(ptr noundef %0) #9 {
  %2 = alloca ptr, align 8
  store ptr %0, ptr %2, align 8, !tbaa !80
  %3 = load ptr, ptr %2, align 8, !tbaa !80
  %4 = call i32 @_Py_IsImmortal(ptr noundef %3)
  %5 = icmp ne i32 %4, 0
  br i1 %5, label %6, label %7

6:                                                ; preds = %1
  br label %16

7:                                                ; preds = %1
  %8 = load ptr, ptr %2, align 8, !tbaa !80
  %9 = getelementptr inbounds nuw %struct._object, ptr %8, i32 0, i32 0
  %10 = getelementptr inbounds nuw %struct.anon.0, ptr %9, i32 0, i32 0
  %11 = load i32, ptr %10, align 8, !tbaa !100
  %12 = add i32 %11, -1
  store i32 %12, ptr %10, align 8, !tbaa !100
  %13 = icmp eq i32 %12, 0
  br i1 %13, label %14, label %16

14:                                               ; preds = %7
  %15 = load ptr, ptr %2, align 8, !tbaa !80
  call void @_Py_Dealloc(ptr noundef %15)
  br label %16

16:                                               ; preds = %6, %14, %7
  ret void
}

; Function Attrs: nounwind uwtable
define internal i32 @test_open_code_hook() #0 {
  %1 = alloca i32, align 4
  %2 = alloca i32, align 4
  %3 = alloca i32, align 4
  %4 = alloca ptr, align 8
  %5 = alloca ptr, align 8
  %6 = alloca ptr, align 8
  %7 = alloca ptr, align 8
  %8 = alloca ptr, align 8
  call void @llvm.lifetime.start.p0(i64 4, ptr %2) #11
  store i32 0, ptr %2, align 4, !tbaa !4
  %9 = call i32 @PyFile_SetOpenCodeHook(ptr noundef @_open_code_hook, ptr noundef %2)
  store i32 %9, ptr %2, align 4, !tbaa !4
  %10 = load i32, ptr %2, align 4, !tbaa !4
  %11 = icmp ne i32 %10, 0
  br i1 %11, label %12, label %14

12:                                               ; preds = %0
  %13 = call i32 (ptr, ...) @printf(ptr noundef @.str.295)
  store i32 1, ptr %1, align 4
  store i32 1, ptr %3, align 4
  br label %63

14:                                               ; preds = %0
  %15 = call i32 @PyFile_SetOpenCodeHook(ptr noundef @_open_code_hook, ptr noundef %2)
  store i32 %15, ptr %2, align 4, !tbaa !4
  %16 = load i32, ptr %2, align 4, !tbaa !4
  %17 = icmp ne i32 %16, 0
  br i1 %17, label %20, label %18

18:                                               ; preds = %14
  %19 = call i32 (ptr, ...) @printf(ptr noundef @.str.296)
  store i32 2, ptr %1, align 4
  store i32 1, ptr %3, align 4
  br label %63

20:                                               ; preds = %14
  store i32 0, ptr @Py_IgnoreEnvironmentFlag, align 4, !tbaa !4
  call void @_testembed_Py_InitializeFromConfig()
  store i32 0, ptr %2, align 4, !tbaa !4
  call void @llvm.lifetime.start.p0(i64 8, ptr %4) #11
  %21 = call ptr @PyFile_OpenCode(ptr noundef @.str.297)
  store ptr %21, ptr %4, align 8, !tbaa !80
  %22 = load ptr, ptr %4, align 8, !tbaa !80
  %23 = icmp ne ptr %22, null
  br i1 %23, label %25, label %24

24:                                               ; preds = %20
  call void @PyErr_Print()
  store i32 3, ptr %2, align 4, !tbaa !4
  br label %34

25:                                               ; preds = %20
  call void @llvm.lifetime.start.p0(i64 8, ptr %5) #11
  %26 = load ptr, ptr %4, align 8, !tbaa !80
  %27 = call ptr @PyLong_AsVoidPtr(ptr noundef %26)
  store ptr %27, ptr %5, align 8, !tbaa !38
  %28 = load ptr, ptr %4, align 8, !tbaa !80
  call void @Py_DECREF(ptr noundef %28)
  %29 = load ptr, ptr %5, align 8, !tbaa !38
  %30 = icmp ne ptr %29, %2
  br i1 %30, label %31, label %33

31:                                               ; preds = %25
  %32 = call i32 (ptr, ...) @printf(ptr noundef @.str.298)
  store i32 4, ptr %2, align 4, !tbaa !4
  br label %33

33:                                               ; preds = %31, %25
  call void @llvm.lifetime.end.p0(i64 8, ptr %5) #11
  br label %34

34:                                               ; preds = %33, %24
  %35 = load i32, ptr %2, align 4, !tbaa !4
  %36 = icmp ne i32 %35, 0
  br i1 %36, label %61, label %37

37:                                               ; preds = %34
  call void @llvm.lifetime.start.p0(i64 8, ptr %6) #11
  %38 = call ptr @PyImport_ImportModule(ptr noundef @.str.299)
  store ptr %38, ptr %6, align 8, !tbaa !80
  call void @llvm.lifetime.start.p0(i64 8, ptr %7) #11
  %39 = load ptr, ptr %6, align 8, !tbaa !80
  %40 = icmp ne ptr %39, null
  br i1 %40, label %41, label %44

41:                                               ; preds = %37
  %42 = load ptr, ptr %6, align 8, !tbaa !80
  %43 = call ptr (ptr, ptr, ptr, ...) @PyObject_CallMethod(ptr noundef %42, ptr noundef @.str.300, ptr noundef @.str.301, ptr noundef @.str.297)
  br label %45

44:                                               ; preds = %37
  br label %45

45:                                               ; preds = %44, %41
  %46 = phi ptr [ %43, %41 ], [ null, %44 ]
  store ptr %46, ptr %7, align 8, !tbaa !80
  %47 = load ptr, ptr %7, align 8, !tbaa !80
  %48 = icmp ne ptr %47, null
  br i1 %48, label %50, label %49

49:                                               ; preds = %45
  call void @PyErr_Print()
  store i32 5, ptr %2, align 4, !tbaa !4
  br label %59

50:                                               ; preds = %45
  call void @llvm.lifetime.start.p0(i64 8, ptr %8) #11
  %51 = load ptr, ptr %7, align 8, !tbaa !80
  %52 = call ptr @PyLong_AsVoidPtr(ptr noundef %51)
  store ptr %52, ptr %8, align 8, !tbaa !38
  %53 = load ptr, ptr %7, align 8, !tbaa !80
  call void @Py_DECREF(ptr noundef %53)
  %54 = load ptr, ptr %8, align 8, !tbaa !38
  %55 = icmp ne ptr %54, %2
  br i1 %55, label %56, label %58

56:                                               ; preds = %50
  %57 = call i32 (ptr, ...) @printf(ptr noundef @.str.298)
  store i32 6, ptr %2, align 4, !tbaa !4
  br label %58

58:                                               ; preds = %56, %50
  call void @llvm.lifetime.end.p0(i64 8, ptr %8) #11
  br label %59

59:                                               ; preds = %58, %49
  %60 = load ptr, ptr %6, align 8, !tbaa !80
  call void @Py_XDECREF(ptr noundef %60)
  call void @llvm.lifetime.end.p0(i64 8, ptr %7) #11
  call void @llvm.lifetime.end.p0(i64 8, ptr %6) #11
  br label %61

61:                                               ; preds = %59, %34
  call void @Py_Finalize()
  %62 = load i32, ptr %2, align 4, !tbaa !4
  store i32 %62, ptr %1, align 4
  store i32 1, ptr %3, align 4
  call void @llvm.lifetime.end.p0(i64 8, ptr %4) #11
  br label %63

63:                                               ; preds = %61, %18, %12
  call void @llvm.lifetime.end.p0(i64 4, ptr %2) #11
  %64 = load i32, ptr %1, align 4
  ret i32 %64
}