; Function Attrs: nounwind uwtable
define internal i32 @test_open_code_hook() #0 {
  %1 = alloca i32, align 4
  call void @llvm.lifetime.start.p0(i64 4, ptr nonnull %1) #20
  store i32 0, ptr %1, align 4, !tbaa !4
  %2 = call i32 @PyFile_SetOpenCodeHook(ptr noundef nonnull @_open_code_hook, ptr noundef nonnull %1) #20
  store i32 %2, ptr %1, align 4, !tbaa !4
  %.not = icmp eq i32 %2, 0
  br i1 %.not, label %4, label %3

3:                                                ; preds = %0
  %puts24 = call i32 @puts(ptr nonnull dereferenceable(1) @str.29)
  br label %38

4:                                                ; preds = %0
  %5 = call i32 @PyFile_SetOpenCodeHook(ptr noundef nonnull @_open_code_hook, ptr noundef nonnull %1) #20
  store i32 %5, ptr %1, align 4, !tbaa !4
  %.not15 = icmp eq i32 %5, 0
  br i1 %.not15, label %6, label %7

6:                                                ; preds = %4
  %puts = call i32 @puts(ptr nonnull dereferenceable(1) @str.26)
  br label %38

7:                                                ; preds = %4
  store i32 0, ptr @Py_IgnoreEnvironmentFlag, align 4, !tbaa !4
  call fastcc void @_testembed_Py_InitializeFromConfig()
  store i32 0, ptr %1, align 4, !tbaa !4
  %8 = call ptr @PyFile_OpenCode(ptr noundef nonnull @.str.297) #20
  %.not16 = icmp eq ptr %8, null
  br i1 %.not16, label %9, label %10

9:                                                ; preds = %7
  call void @PyErr_Print() #20
  store i32 3, ptr %1, align 4, !tbaa !4
  br label %Py_XDECREF.exit

10:                                               ; preds = %7
  %11 = call ptr @PyLong_AsVoidPtr(ptr noundef nonnull %8) #20
  %12 = load i32, ptr %8, align 8, !tbaa !83
  %.not.i = icmp sgt i32 %12, -1
  br i1 %.not.i, label %13, label %Py_DECREF.exit

13:                                               ; preds = %10
  %14 = add nsw i32 %12, -1
  store i32 %14, ptr %8, align 8, !tbaa !83
  %15 = icmp eq i32 %14, 0
  br i1 %15, label %16, label %Py_DECREF.exit

16:                                               ; preds = %13
  call void @_Py_Dealloc(ptr noundef nonnull %8) #20
  br label %Py_DECREF.exit

Py_DECREF.exit:                                   ; preds = %10, %13, %16
  %.not17 = icmp eq ptr %11, %1
  br i1 %.not17, label %18, label %17

17:                                               ; preds = %Py_DECREF.exit
  %puts18 = call i32 @puts(ptr nonnull dereferenceable(1) @str.28)
  store i32 4, ptr %1, align 4, !tbaa !4
  br label %Py_XDECREF.exit

18:                                               ; preds = %Py_DECREF.exit
  %.pr = load i32, ptr %1, align 4, !tbaa !4
  %.not19 = icmp eq i32 %.pr, 0
  br i1 %.not19, label %19, label %Py_XDECREF.exit

19:                                               ; preds = %18
  %20 = call ptr @PyImport_ImportModule(ptr noundef nonnull @.str.299) #20
  %.not20 = icmp eq ptr %20, null
  br i1 %.not20, label %.thread34, label %21

.thread34:                                        ; preds = %19
  call void @PyErr_Print() #20
  store i32 5, ptr %1, align 4, !tbaa !4
  br label %Py_XDECREF.exit

21:                                               ; preds = %19
  %22 = call ptr (ptr, ptr, ptr, ...) @PyObject_CallMethod(ptr noundef nonnull %20, ptr noundef nonnull @.str.300, ptr noundef nonnull @.str.301, ptr noundef nonnull @.str.297) #20
  %.not21 = icmp eq ptr %22, null
  br i1 %.not21, label %31, label %23

23:                                               ; preds = %21
  %24 = call ptr @PyLong_AsVoidPtr(ptr noundef nonnull %22) #20
  %25 = load i32, ptr %22, align 8, !tbaa !83
  %.not.i25 = icmp sgt i32 %25, -1
  br i1 %.not.i25, label %26, label %Py_DECREF.exit26

26:                                               ; preds = %23
  %27 = add nsw i32 %25, -1
  store i32 %27, ptr %22, align 8, !tbaa !83
  %28 = icmp eq i32 %27, 0
  br i1 %28, label %29, label %Py_DECREF.exit26

29:                                               ; preds = %26
  call void @_Py_Dealloc(ptr noundef nonnull %22) #20
  br label %Py_DECREF.exit26

Py_DECREF.exit26:                                 ; preds = %23, %26, %29
  %.not22 = icmp eq ptr %24, %1
  br i1 %.not22, label %.thread33, label %30

30:                                               ; preds = %Py_DECREF.exit26
  %puts23 = call i32 @puts(ptr nonnull dereferenceable(1) @str.28)
  br label %.thread33.sink.split

31:                                               ; preds = %21
  call void @PyErr_Print() #20
  br label %.thread33.sink.split

.thread33.sink.split:                             ; preds = %31, %30
  %.sink = phi i32 [ 6, %30 ], [ 5, %31 ]
  store i32 %.sink, ptr %1, align 4, !tbaa !4
  br label %.thread33

.thread33:                                        ; preds = %.thread33.sink.split, %Py_DECREF.exit26
  %32 = load i32, ptr %20, align 8, !tbaa !83
  %.not.i.i = icmp sgt i32 %32, -1
  br i1 %.not.i.i, label %33, label %Py_XDECREF.exit

33:                                               ; preds = %.thread33
  %34 = add nsw i32 %32, -1
  store i32 %34, ptr %20, align 8, !tbaa !83
  %35 = icmp eq i32 %34, 0
  br i1 %35, label %36, label %Py_XDECREF.exit

36:                                               ; preds = %33
  call void @_Py_Dealloc(ptr noundef nonnull %20) #20
  br label %Py_XDECREF.exit

Py_XDECREF.exit:                                  ; preds = %9, %17, %36, %33, %.thread33, %.thread34, %18
  call void @Py_Finalize() #20
  %37 = load i32, ptr %1, align 4, !tbaa !4
  br label %38

38:                                               ; preds = %Py_XDECREF.exit, %6, %3
  %.0 = phi i32 [ 1, %3 ], [ %37, %Py_XDECREF.exit ], [ 2, %6 ]
  call void @llvm.lifetime.end.p0(i64 4, ptr nonnull %1) #20
  ret i32 %.0
}